; Function Attrs: mustprogress nofree norecurse nounwind memory(readwrite, inaccessiblemem: none) uwtable
define internal void @_ZN32pxrInternal_v0_24__pxrReserved__12_GLOBAL__N_127_PerThreadPropertyPathCacheD2Ev(ptr noundef nonnull readonly align 8 dereferenceable(16384) %0) unnamed_addr #11 align 2 personality ptr @__gxx_personality_v0 {
  %2 = getelementptr inbounds i8, ptr %0, i64 16384
  br label %3

3:                                                ; preds = %_ZN32pxrInternal_v0_24__pxrReserved__12_GLOBAL__N_127_PerThreadPropertyPathCache6_EntryD2Ev.exit, %1
  %4 = phi ptr [ %2, %1 ], [ %5, %_ZN32pxrInternal_v0_24__pxrReserved__12_GLOBAL__N_127_PerThreadPropertyPathCache6_EntryD2Ev.exit ]
  %5 = getelementptr inbounds i8, ptr %4, i64 -16
  %.val = load ptr, ptr %5, align 8
  %6 = ptrtoint ptr %.val to i64
  %7 = and i64 %6, 7
  %.not.i.i.i = icmp eq i64 %7, 0
  br i1 %.not.i.i.i, label %_ZN32pxrInternal_v0_24__pxrReserved__12_GLOBAL__N_127_PerThreadPropertyPathCache6_EntryD2Ev.exit, label %8

8:                                                ; preds = %3
  %9 = and i64 %6, -8
  %10 = inttoptr i64 %9 to ptr
  %11 = atomicrmw sub ptr %10, i32 2 release, align 4
  br label %_ZN32pxrInternal_v0_24__pxrReserved__12_GLOBAL__N_127_PerThreadPropertyPathCache6_EntryD2Ev.exit

_ZN32pxrInternal_v0_24__pxrReserved__12_GLOBAL__N_127_PerThreadPropertyPathCache6_EntryD2Ev.exit: ; preds = %3, %8
  %12 = icmp eq ptr %5, %0
  br i1 %12, label %13, label %3

13:                                               ; preds = %_ZN32pxrInternal_v0_24__pxrReserved__12_GLOBAL__N_127_PerThreadPropertyPathCache6_EntryD2Ev.exit
  ret void
}